target datalayout = "e-m:e-p270:32:32-p271:32:32-p272:64:64-i64:64-i128:128-f80:128-n8:16:32:64-S128"
target triple = "x86_64-unknown-linux-gnu"

%"struct.std::array.3" = type { [4 x i64] }
%"class.arrow::Status" = type { ptr }
%"class.std::basic_string_view" = type { i64, ptr }
%"class.arrow::Decimal256" = type { %"class.arrow::BasicDecimal256" }
%"class.arrow::BasicDecimal256" = type { %"class.arrow::GenericBasicDecimal.2" }
%"class.arrow::GenericBasicDecimal.2" = type { %"struct.std::array.3" }
%"class.arrow::Result.4" = type { %"class.arrow::Status", %"class.arrow::internal::AlignedStorage.7" }
%"class.arrow::internal::AlignedStorage.7" = type { %"union.std::aligned_storage<32, 8>::type" }
%"union.std::aligned_storage<32, 8>::type" = type { [32 x i8] }

; Function Attrs: mustprogress nounwind uwtable
define linkonce_odr noundef ptr @_ZSt7launderIN5arrow10Decimal256EEPT_S3_(ptr noundef %__p) #2 comdat {
entry:
  %__p.addr = alloca ptr, align 8
  store ptr %__p, ptr %__p.addr, align 8
  %0 = load ptr, ptr %__p.addr, align 8
  ret ptr %0
}

; Function Attrs: mustprogress nounwind uwtable
define linkonce_odr noundef ptr @_ZN5arrow8internal14AlignedStorageINS_10Decimal256EE3getEv(ptr noundef nonnull align 8 dereferenceable(32) %this) #2 comdat align 2 {
entry:
  %this.addr = alloca ptr, align 8
  store ptr %this, ptr %this.addr, align 8
  %this1 = load ptr, ptr %this.addr, align 8
  %data_ = getelementptr inbounds %"class.arrow::internal::AlignedStorage.7", ptr %this1, i32 0, i32 0
  %call = call noundef ptr @_ZSt7launderIN5arrow10Decimal256EEPT_S3_(ptr noundef %data_) #12
  ret ptr %call
}

; Function Attrs: mustprogress nounwind uwtable
define linkonce_odr noundef zeroext i1 @_ZNK5arrow6Status2okEv(ptr noundef nonnull align 8 dereferenceable(8) %this) #2 comdat align 2 {
entry:
  %this.addr = alloca ptr, align 8
  store ptr %this, ptr %this.addr, align 8
  %this1 = load ptr, ptr %this.addr, align 8
  %state_ = getelementptr inbounds %"class.arrow::Status", ptr %this1, i32 0, i32 0
  %0 = load ptr, ptr %state_, align 8
  %cmp = icmp eq ptr %0, null
  ret i1 %cmp
}

; Function Attrs: mustprogress nounwind uwtable
define linkonce_odr void @_ZN5arrow19GenericBasicDecimalINS_15BasicDecimal256ELi256ELi4EEC2Ev(ptr noundef nonnull align 8 dereferenceable(32) %this) unnamed_addr #2 comdat align 2 {
entry:
  %this.addr = alloca ptr, align 8
  store ptr %this, ptr %this.addr, align 8
  %this1 = load ptr, ptr %this.addr, align 8
  %array_ = getelementptr inbounds %"class.arrow::GenericBasicDecimal.2", ptr %this1, i32 0, i32 0
  call void @llvm.memset.p0.i64(ptr align 8 %array_, i8 0, i64 32, i1 false)
  ret void
}

; Function Attrs: mustprogress nounwind uwtable
define linkonce_odr void @_ZN5arrow6ResultINS_10Decimal256EE15MoveValueUnsafeEv(ptr noalias sret(%"class.arrow::Decimal256") align 8 %agg.result, ptr noundef nonnull align 8 dereferenceable(40) %this) #2 comdat align 2 {
entry:
  %this.addr = alloca ptr, align 8
  store ptr %this, ptr %this.addr, align 8
  %this1 = load ptr, ptr %this.addr, align 8
  %storage_ = getelementptr inbounds %"class.arrow::Result.4", ptr %this1, i32 0, i32 1
  %call = call noundef ptr @_ZN5arrow8internal14AlignedStorageINS_10Decimal256EE3getEv(ptr noundef nonnull align 8 dereferenceable(32) %storage_) #12
  call void @llvm.memcpy.p0.p0.i64(ptr align 8 %agg.result, ptr align 8 %call, i64 32, i1 false)
  ret void
}

; Function Attrs: mustprogress nounwind uwtable
define linkonce_odr noundef zeroext i1 @_ZNK5arrow6ResultINS_10Decimal256EE2okEv(ptr noundef nonnull align 8 dereferenceable(40) %this) #2 comdat align 2 {
entry:
  %this.addr = alloca ptr, align 8
  store ptr %this, ptr %this.addr, align 8
  %this1 = load ptr, ptr %this.addr, align 8
  %status_ = getelementptr inbounds %"class.arrow::Result.4", ptr %this1, i32 0, i32 0
  %call = call noundef zeroext i1 @_ZNK5arrow6Status2okEv(ptr noundef nonnull align 8 dereferenceable(8) %status_)
  ret i1 %call
}

; Function Attrs: mustprogress nounwind uwtable
define linkonce_odr void @_ZN5arrow15BasicDecimal256C2Ev(ptr noundef nonnull align 8 dereferenceable(32) %this) unnamed_addr #2 comdat align 2 {
entry:
  %this.addr = alloca ptr, align 8
  store ptr %this, ptr %this.addr, align 8
  %this1 = load ptr, ptr %this.addr, align 8
  call void @_ZN5arrow19GenericBasicDecimalINS_15BasicDecimal256ELi256ELi4EEC2Ev(ptr noundef nonnull align 8 dereferenceable(32) %this1) #12
  ret void
}

; Function Attrs: mustprogress uwtable
define linkonce_odr void @_ZNO5arrow6ResultINS_10Decimal256EE10ValueOrDieEv(ptr noalias sret(%"class.arrow::Decimal256") align 8 %agg.result, ptr noundef nonnull align 8 dereferenceable(40) %this) #0 comdat align 2 {
entry:
  %this.addr = alloca ptr, align 8
  store ptr %this, ptr %this.addr, align 8
  %this1 = load ptr, ptr %this.addr, align 8
  %call = call noundef zeroext i1 @_ZNK5arrow6ResultINS_10Decimal256EE2okEv(ptr noundef nonnull align 8 dereferenceable(40) %this1)
  %lnot = xor i1 %call, true
  %lnot2 = xor i1 %lnot, true
  %lnot3 = xor i1 %lnot2, true
  br i1 %lnot3, label %if.then, label %if.end

if.then:                                          ; preds = %entry
  %status_ = getelementptr inbounds %"class.arrow::Result.4", ptr %this1, i32 0, i32 0
  call void @_ZN5arrow8internal17InvalidValueOrDieERKNS_6StatusE(ptr noundef nonnull align 8 dereferenceable(8) %status_)
  br label %if.end

if.end:                                           ; preds = %if.then, %entry
  call void @_ZN5arrow6ResultINS_10Decimal256EE15MoveValueUnsafeEv(ptr sret(%"class.arrow::Decimal256") align 8 %agg.result, ptr noundef nonnull align 8 dereferenceable(40) %this1)
  ret void
}

; Function Attrs: mustprogress uwtable
define void @_ZN5arrow10Decimal25610FromStringERKNSt7__cxx1112basic_stringIcSt11char_traitsIcESaIcEEE(ptr noalias sret(%"class.arrow::Result.4") align 8 %agg.result, ptr noundef nonnull align 8 dereferenceable(32) %s) #0 align 2 {
entry:
  %result.ptr = alloca ptr, align 8
  %s.addr = alloca ptr, align 8
  %agg.tmp = alloca %"class.std::basic_string_view", align 8
  store ptr %agg.result, ptr %result.ptr, align 8
  store ptr %s, ptr %s.addr, align 8
  %0 = load ptr, ptr %s.addr, align 8
  %call = call { i64, ptr } @_ZNKSt7__cxx1112basic_stringIcSt11char_traitsIcESaIcEEcvSt17basic_string_viewIcS2_EEv(ptr noundef nonnull align 8 dereferenceable(32) %0) #12
  %1 = getelementptr inbounds { i64, ptr }, ptr %agg.tmp, i32 0, i32 0
  %2 = extractvalue { i64, ptr } %call, 0
  store i64 %2, ptr %1, align 8
  %3 = getelementptr inbounds { i64, ptr }, ptr %agg.tmp, i32 0, i32 1
  %4 = extractvalue { i64, ptr } %call, 1
  store ptr %4, ptr %3, align 8
  %5 = getelementptr inbounds { i64, ptr }, ptr %agg.tmp, i32 0, i32 0
  %6 = load i64, ptr %5, align 8
  %7 = getelementptr inbounds { i64, ptr }, ptr %agg.tmp, i32 0, i32 1
  %8 = load ptr, ptr %7, align 8
  call void @_ZN5arrow10Decimal25610FromStringESt17basic_string_viewIcSt11char_traitsIcEE(ptr sret(%"class.arrow::Result.4") align 8 %agg.result, i64 %6, ptr %8)
  ret void
}

; Function Attrs: mustprogress nounwind uwtable
define linkonce_odr void @_ZN5arrow10Decimal256C2Ev(ptr noundef nonnull align 8 dereferenceable(32) %this) unnamed_addr #2 comdat align 2 {
entry:
  %this.addr = alloca ptr, align 8
  store ptr %this, ptr %this.addr, align 8
  %this1 = load ptr, ptr %this.addr, align 8
  call void @_ZN5arrow15BasicDecimal256C2Ev(ptr noundef nonnull align 8 dereferenceable(32) %this1) #12
  ret void
}

; Function Attrs: mustprogress uwtable
define void @_ZN5arrow10Decimal256C2ERKNSt7__cxx1112basic_stringIcSt11char_traitsIcESaIcEEE(ptr noundef nonnull align 8 dereferenceable(32) %this, ptr noundef nonnull align 8 dereferenceable(32) %str) unnamed_addr #0 align 2 personality ptr @__gxx_personality_v0 {
entry:
  %this.addr = alloca ptr, align 8
  %str.addr = alloca ptr, align 8
  %ref.tmp = alloca %"class.arrow::Decimal256", align 8
  %ref.tmp2 = alloca %"class.arrow::Result.4", align 8
  %exn.slot = alloca ptr, align 8
  %ehselector.slot = alloca i32, align 4
  store ptr %this, ptr %this.addr, align 8
  store ptr %str, ptr %str.addr, align 8
  %this1 = load ptr, ptr %this.addr, align 8
  call void @_ZN5arrow10Decimal256C2Ev(ptr noundef nonnull align 8 dereferenceable(32) %this1) #12
  %0 = load ptr, ptr %str.addr, align 8
  call void @_ZN5arrow10Decimal25610FromStringERKNSt7__cxx1112basic_stringIcSt11char_traitsIcESaIcEEE(ptr sret(%"class.arrow::Result.4") align 8 %ref.tmp2, ptr noundef nonnull align 8 dereferenceable(32) %0)
  invoke void @_ZNO5arrow6ResultINS_10Decimal256EE10ValueOrDieEv(ptr sret(%"class.arrow::Decimal256") align 8 %ref.tmp, ptr noundef nonnull align 8 dereferenceable(40) %ref.tmp2)
          to label %invoke.cont unwind label %lpad

invoke.cont:                                      ; preds = %entry
  call void @llvm.memcpy.p0.p0.i64(ptr align 8 %this1, ptr align 8 %ref.tmp, i64 32, i1 false)
  call void @_ZN5arrow6ResultINS_10Decimal256EED2Ev(ptr noundef nonnull align 8 dereferenceable(40) %ref.tmp2) #12
  ret void

lpad:                                             ; preds = %entry
  %1 = landingpad { ptr, i32 }
          cleanup
  %2 = extractvalue { ptr, i32 } %1, 0
  store ptr %2, ptr %exn.slot, align 8
  %3 = extractvalue { ptr, i32 } %1, 1
  store i32 %3, ptr %ehselector.slot, align 4
  call void @_ZN5arrow6ResultINS_10Decimal256EED2Ev(ptr noundef nonnull align 8 dereferenceable(40) %ref.tmp2) #12
  br label %eh.resume

eh.resume:                                        ; preds = %lpad
  %exn = load ptr, ptr %exn.slot, align 8
  %sel = load i32, ptr %ehselector.slot, align 4
  %lpad.val = insertvalue { ptr, i32 } poison, ptr %exn, 0
  %lpad.val3 = insertvalue { ptr, i32 } %lpad.val, i32 %sel, 1
  resume { ptr, i32 } %lpad.val3
}