; Function Attrs: mustprogress uwtable
define void @_ZN5arrow10Decimal256C2ERKNSt7__cxx1112basic_stringIcSt11char_traitsIcESaIcEEE(ptr nocapture noundef nonnull writeonly align 8 dereferenceable(32) %this, ptr noundef nonnull align 8 dereferenceable(32) %str) unnamed_addr #0 align 2 personality ptr @__gxx_personality_v0 {
entry:
  %ref.tmp2 = alloca %"class.arrow::Result.4", align 8
  tail call void @llvm.memset.p0.i64(ptr noundef nonnull align 8 dereferenceable(32) %this, i8 0, i64 32, i1 false)
  %call.i = tail call { i64, ptr } @_ZNKSt7__cxx1112basic_stringIcSt11char_traitsIcESaIcEEcvSt17basic_string_viewIcS2_EEv(ptr noundef nonnull align 8 dereferenceable(32) %str) #18, !noalias !71
  %0 = extractvalue { i64, ptr } %call.i, 0
  %1 = extractvalue { i64, ptr } %call.i, 1
  call void @_ZN5arrow10Decimal25610FromStringESt17basic_string_viewIcSt11char_traitsIcEE(ptr nonnull sret(%"class.arrow::Result.4") align 8 %ref.tmp2, i64 %0, ptr %1)
  %2 = load ptr, ptr %ref.tmp2, align 8
  %cmp.i.i.i = icmp eq ptr %2, null
  br i1 %cmp.i.i.i, label %invoke.cont.thread, label %if.then.i

invoke.cont.thread:                               ; preds = %entry
  %storage_.i.i1 = getelementptr inbounds i8, ptr %ref.tmp2, i64 8
  call void @llvm.memcpy.p0.p0.i64(ptr noundef nonnull align 8 dereferenceable(32) %this, ptr noundef nonnull align 8 dereferenceable(32) %storage_.i.i1, i64 32, i1 false)
  br label %_ZN5arrow6ResultINS_10Decimal256EED2Ev.exit

if.then.i:                                        ; preds = %entry
  invoke void @_ZN5arrow8internal17InvalidValueOrDieERKNS_6StatusE(ptr noundef nonnull align 8 dereferenceable(8) %ref.tmp2)
          to label %invoke.cont unwind label %lpad

invoke.cont:                                      ; preds = %if.then.i
  %.pr = load ptr, ptr %ref.tmp2, align 8
  %storage_.i.i = getelementptr inbounds i8, ptr %ref.tmp2, i64 8
  call void @llvm.memcpy.p0.p0.i64(ptr noundef nonnull align 8 dereferenceable(32) %this, ptr noundef nonnull align 8 dereferenceable(32) %storage_.i.i, i64 32, i1 false)
  %cmp.not.i.i = icmp eq ptr %.pr, null
  br i1 %cmp.not.i.i, label %_ZN5arrow6ResultINS_10Decimal256EED2Ev.exit, label %delete.notnull.i.i.i

delete.notnull.i.i.i:                             ; preds = %invoke.cont
  %_M_refcount.i.i.i.i.i.i = getelementptr inbounds i8, ptr %.pr, i64 48
  %3 = load ptr, ptr %_M_refcount.i.i.i.i.i.i, align 8
  %cmp.not.i.i.i.i.i.i.i = icmp eq ptr %3, null
  br i1 %cmp.not.i.i.i.i.i.i.i, label %_ZN5arrow6Status11DeleteStateEv.exit.i.i, label %if.then.i.i.i.i.i.i.i

if.then.i.i.i.i.i.i.i:                            ; preds = %delete.notnull.i.i.i
  %_M_use_count.i.i.i.i.i.i.i.i = getelementptr inbounds i8, ptr %3, i64 8
  %4 = load atomic i64, ptr %_M_use_count.i.i.i.i.i.i.i.i acquire, align 8
  %cmp.i.i.i.i.i.i.i.i = icmp eq i64 %4, 4294967297
  %5 = trunc i64 %4 to i32
  br i1 %cmp.i.i.i.i.i.i.i.i, label %if.then.i.i.i.i.i.i.i.i, label %if.end.i.i.i.i.i.i.i.i

if.then.i.i.i.i.i.i.i.i:                          ; preds = %if.then.i.i.i.i.i.i.i
  store i32 0, ptr %_M_use_count.i.i.i.i.i.i.i.i, align 8
  %_M_weak_count.i.i.i.i.i.i.i.i = getelementptr inbounds i8, ptr %3, i64 12
  store i32 0, ptr %_M_weak_count.i.i.i.i.i.i.i.i, align 4
  %vtable.i.i.i.i.i.i.i.i = load ptr, ptr %3, align 8
  %vfn.i.i.i.i.i.i.i.i = getelementptr inbounds i8, ptr %vtable.i.i.i.i.i.i.i.i, i64 16
  %6 = load ptr, ptr %vfn.i.i.i.i.i.i.i.i, align 8
  call void %6(ptr noundef nonnull align 8 dereferenceable(16) %3) #18
  br label %if.end8.sink.split.i.i.i.i.i.i.i.i

if.end.i.i.i.i.i.i.i.i:                           ; preds = %if.then.i.i.i.i.i.i.i
  %7 = load i8, ptr @__libc_single_threaded, align 1
  %tobool.i.not.i.i.i.i.i.i.i.i = icmp eq i8 %7, 0
  br i1 %tobool.i.not.i.i.i.i.i.i.i.i, label %if.else.i.i.i.i.i.i.i.i.i, label %if.then.i.i.i.i.i.i.i.i.i

if.then.i.i.i.i.i.i.i.i.i:                        ; preds = %if.end.i.i.i.i.i.i.i.i
  %add.i.i.i.i.i.i.i.i.i = add nsw i32 %5, -1
  store i32 %add.i.i.i.i.i.i.i.i.i, ptr %_M_use_count.i.i.i.i.i.i.i.i, align 4
  br label %_ZN9__gnu_cxx27__exchange_and_add_dispatchEPii.exit.i.i.i.i.i.i.i.i

if.else.i.i.i.i.i.i.i.i.i:                        ; preds = %if.end.i.i.i.i.i.i.i.i
  %8 = atomicrmw volatile add ptr %_M_use_count.i.i.i.i.i.i.i.i, i32 -1 acq_rel, align 4
  br label %_ZN9__gnu_cxx27__exchange_and_add_dispatchEPii.exit.i.i.i.i.i.i.i.i

_ZN9__gnu_cxx27__exchange_and_add_dispatchEPii.exit.i.i.i.i.i.i.i.i: ; preds = %if.else.i.i.i.i.i.i.i.i.i, %if.then.i.i.i.i.i.i.i.i.i
  %retval.i.0.i.i.i.i.i.i.i.i = phi i32 [ %5, %if.then.i.i.i.i.i.i.i.i.i ], [ %8, %if.else.i.i.i.i.i.i.i.i.i ]
  %cmp6.i.i.i.i.i.i.i.i = icmp eq i32 %retval.i.0.i.i.i.i.i.i.i.i, 1
  br i1 %cmp6.i.i.i.i.i.i.i.i, label %if.then7.i.i.i.i.i.i.i.i, label %_ZN5arrow6Status11DeleteStateEv.exit.i.i

if.then7.i.i.i.i.i.i.i.i:                         ; preds = %_ZN9__gnu_cxx27__exchange_and_add_dispatchEPii.exit.i.i.i.i.i.i.i.i
  %vtable.i.i.i.i.i.i.i.i.i.i = load ptr, ptr %3, align 8
  %vfn.i.i.i.i.i.i.i.i.i.i = getelementptr inbounds i8, ptr %vtable.i.i.i.i.i.i.i.i.i.i, i64 16
  %9 = load ptr, ptr %vfn.i.i.i.i.i.i.i.i.i.i, align 8
  call void %9(ptr noundef nonnull align 8 dereferenceable(16) %3) #18
  %_M_weak_count.i.i.i.i.i.i.i.i.i.i = getelementptr inbounds i8, ptr %3, i64 12
  %10 = load i8, ptr @__libc_single_threaded, align 1
  %tobool.i.not.i.i.i.i.i.i.i.i.i.i = icmp eq i8 %10, 0
  br i1 %tobool.i.not.i.i.i.i.i.i.i.i.i.i, label %if.else.i.i.i.i.i.i.i.i.i.i.i, label %if.then.i.i.i.i.i.i.i.i.i.i.i

if.then.i.i.i.i.i.i.i.i.i.i.i:                    ; preds = %if.then7.i.i.i.i.i.i.i.i
  %11 = load i32, ptr %_M_weak_count.i.i.i.i.i.i.i.i.i.i, align 4
  %add.i.i.i.i.i.i.i.i.i.i.i = add nsw i32 %11, -1
  store i32 %add.i.i.i.i.i.i.i.i.i.i.i, ptr %_M_weak_count.i.i.i.i.i.i.i.i.i.i, align 4
  br label %_ZN9__gnu_cxx27__exchange_and_add_dispatchEPii.exit.i.i.i.i.i.i.i.i.i.i

if.else.i.i.i.i.i.i.i.i.i.i.i:                    ; preds = %if.then7.i.i.i.i.i.i.i.i
  %12 = atomicrmw volatile add ptr %_M_weak_count.i.i.i.i.i.i.i.i.i.i, i32 -1 acq_rel, align 4
  br label %_ZN9__gnu_cxx27__exchange_and_add_dispatchEPii.exit.i.i.i.i.i.i.i.i.i.i

_ZN9__gnu_cxx27__exchange_and_add_dispatchEPii.exit.i.i.i.i.i.i.i.i.i.i: ; preds = %if.else.i.i.i.i.i.i.i.i.i.i.i, %if.then.i.i.i.i.i.i.i.i.i.i.i
  %retval.i.0.i.i.i.i.i.i.i.i.i.i = phi i32 [ %11, %if.then.i.i.i.i.i.i.i.i.i.i.i ], [ %12, %if.else.i.i.i.i.i.i.i.i.i.i.i ]
  %cmp.i.i.i.i.i.i.i.i.i.i = icmp eq i32 %retval.i.0.i.i.i.i.i.i.i.i.i.i, 1
  br i1 %cmp.i.i.i.i.i.i.i.i.i.i, label %if.end8.sink.split.i.i.i.i.i.i.i.i, label %_ZN5arrow6Status11DeleteStateEv.exit.i.i

if.end8.sink.split.i.i.i.i.i.i.i.i:               ; preds = %_ZN9__gnu_cxx27__exchange_and_add_dispatchEPii.exit.i.i.i.i.i.i.i.i.i.i, %if.then.i.i.i.i.i.i.i.i
  %vtable2.i.i.i.i.i.i.i.i.i.i = load ptr, ptr %3, align 8
  %vfn3.i.i.i.i.i.i.i.i.i.i = getelementptr inbounds i8, ptr %vtable2.i.i.i.i.i.i.i.i.i.i, i64 24
  %13 = load ptr, ptr %vfn3.i.i.i.i.i.i.i.i.i.i, align 8
  call void %13(ptr noundef nonnull align 8 dereferenceable(16) %3) #18
  br label %_ZN5arrow6Status11DeleteStateEv.exit.i.i

_ZN5arrow6Status11DeleteStateEv.exit.i.i:         ; preds = %if.end8.sink.split.i.i.i.i.i.i.i.i, %_ZN9__gnu_cxx27__exchange_and_add_dispatchEPii.exit.i.i.i.i.i.i.i.i.i.i, %_ZN9__gnu_cxx27__exchange_and_add_dispatchEPii.exit.i.i.i.i.i.i.i.i, %delete.notnull.i.i.i
  %msg.i.i.i.i = getelementptr inbounds i8, ptr %.pr, i64 8
  call void @_ZNSt7__cxx1112basic_stringIcSt11char_traitsIcESaIcEED1Ev(ptr noundef nonnull align 8 dereferenceable(32) %msg.i.i.i.i) #18
  call void @_ZdlPv(ptr noundef nonnull %.pr) #19
  br label %_ZN5arrow6ResultINS_10Decimal256EED2Ev.exit

_ZN5arrow6ResultINS_10Decimal256EED2Ev.exit:      ; preds = %invoke.cont.thread, %invoke.cont, %_ZN5arrow6Status11DeleteStateEv.exit.i.i
  ret void

lpad:                                             ; preds = %if.then.i
  %14 = landingpad { ptr, i32 }
          cleanup
  call void @_ZN5arrow6ResultINS_10Decimal256EED2Ev(ptr noundef nonnull align 8 dereferenceable(40) %ref.tmp2) #18
  resume { ptr, i32 } %14
}